target datalayout = "e-m:e-p270:32:32-p271:32:32-p272:64:64-i64:64-i128:128-f80:128-n8:16:32:64-S128"
target triple = "x86_64-pc-linux-gnu"

%"class.nix::PosIdx" = type { i32 }
%"struct.std::_Rb_tree_key_compare.64" = type { %"struct.std::less.65" }
%"struct.std::less.65" = type { i8 }
%"struct.std::_Rb_tree_header" = type { %"struct.std::_Rb_tree_node_base", i64 }
%"struct.std::_Rb_tree_node_base" = type { i32, ptr, ptr, ptr }
%"class.std::__cxx11::basic_string" = type { %"struct.std::__cxx11::basic_string<char>::_Alloc_hider", i64, %union.anon }
%"struct.std::__cxx11::basic_string<char>::_Alloc_hider" = type { ptr }
%union.anon = type { i64, [8 x i8] }
%"struct.std::__detail::_List_node_header" = type { %"struct.std::__detail::_List_node_base", i64 }
%"struct.std::__detail::_List_node_base" = type { ptr, ptr }
%"struct.nix::Value" = type { i32, %union.anon.0 }
%union.anon.0 = type { %"struct.nix::Value::StringWithContext" }
%"struct.nix::Value::StringWithContext" = type { ptr, ptr }
%"class.std::basic_string_view" = type { i64, ptr }
%"struct.nix::PrintOptions" = type { i8, i8, i8, i8, i64, i64, i64, i64, i64 }
%"class.nix::LibExprTest" = type { %"class.nix::LibStoreTest.base", %"class.nix::EvalState", %"class.testing::Test" }
%"class.nix::LibStoreTest.base" = type { ptr, %"class.nix::ref" }
%"class.nix::ref" = type { %"class.std::shared_ptr" }
%"class.std::shared_ptr" = type { %"class.std::__shared_ptr" }
%"class.std::__shared_ptr" = type { ptr, %"class.std::__shared_count" }
%"class.std::__shared_count" = type { ptr }
%"class.nix::EvalState" = type { %"class.std::enable_shared_from_this", %"class.nix::SymbolTable", %"class.nix::PosTable", %"class.nix::Symbol", %"class.nix::Symbol", %"class.nix::Symbol", %"class.nix::Symbol", %"class.nix::Symbol", %"class.nix::Symbol", %"class.nix::Symbol", %"class.nix::Symbol", %"class.nix::Symbol", %"class.nix::Symbol", %"class.nix::Symbol", %"class.nix::Symbol", %"class.nix::Symbol", %"class.nix::Symbol", %"class.nix::Symbol", %"class.nix::Symbol", %"class.nix::Symbol", %"class.nix::Symbol", %"class.nix::Symbol", %"class.nix::Symbol", %"class.nix::Symbol", %"class.nix::Symbol", %"class.nix::Symbol", %"class.nix::Symbol", %"class.nix::Symbol", %"class.nix::Symbol", %"class.nix::Symbol", %"class.nix::Symbol", %"class.nix::Symbol", %"class.nix::Symbol", %"class.nix::Symbol", %"class.nix::Symbol", %"class.nix::Symbol", %"class.nix::Symbol", %"class.nix::Symbol", %"class.nix::Symbol", %"class.nix::Symbol", %"struct.nix::Expr::AstSymbols", i8, %"class.nix::Bindings", %"struct.nix::Value", %"class.nix::ref.22", %"class.nix::ref.26", %"class.nix::ref.26", %"struct.nix::SourcePath", %"struct.nix::SourcePath", %"class.nix::ref", %"class.nix::ref", %"class.std::shared_ptr.30", ptr, i8, i8, i32, %"class.std::__cxx11::list", %"class.std::map", %"class.std::map.40", %"class.std::map.48", %"class.std::map.50", %"struct.nix::SearchPath", %"class.std::map.59", %"class.std::shared_ptr.67", %"class.std::shared_ptr.70", %"class.std::shared_ptr.70", ptr, %"class.std::shared_ptr.73", %"class.std::vector.76", i32, i64, i64, i64, i64, i64, i64, i64, i64, i64, i64, i64, i64, i64, i64, i8, %"class.std::map.81", %"class.std::map.86", %"class.std::map.94" }
%"class.std::enable_shared_from_this" = type { %"class.std::weak_ptr" }
%"class.std::weak_ptr" = type { %"class.std::__weak_ptr" }
%"class.std::__weak_ptr" = type { ptr, %"class.std::__weak_count" }
%"class.std::__weak_count" = type { ptr }
%"class.nix::SymbolTable" = type { %"class.std::unordered_map", %"class.nix::ChunkedVector" }
%"class.std::unordered_map" = type { %"class.std::_Hashtable" }
%"class.std::_Hashtable" = type { ptr, i64, %"struct.std::__detail::_Hash_node_base", i64, %"struct.std::__detail::_Prime_rehash_policy", ptr }
%"struct.std::__detail::_Hash_node_base" = type { ptr }
%"struct.std::__detail::_Prime_rehash_policy" = type { float, i64 }
%"class.nix::ChunkedVector" = type { i32, %"class.std::vector" }
%"class.std::vector" = type { %"struct.std::_Vector_base" }
%"struct.std::_Vector_base" = type { %"struct.std::_Vector_base<std::vector<std::__cxx11::basic_string<char>>, std::allocator<std::vector<std::__cxx11::basic_string<char>>>>::_Vector_impl" }
%"struct.std::_Vector_base<std::vector<std::__cxx11::basic_string<char>>, std::allocator<std::vector<std::__cxx11::basic_string<char>>>>::_Vector_impl" = type { %"struct.std::_Vector_base<std::vector<std::__cxx11::basic_string<char>>, std::allocator<std::vector<std::__cxx11::basic_string<char>>>>::_Vector_impl_data" }
%"struct.std::_Vector_base<std::vector<std::__cxx11::basic_string<char>>, std::allocator<std::vector<std::__cxx11::basic_string<char>>>>::_Vector_impl_data" = type { ptr, ptr, ptr }
%"class.nix::PosTable" = type { %"class.std::vector.11", %"class.nix::ChunkedVector.16" }
%"class.std::vector.11" = type { %"struct.std::_Vector_base.12" }
%"struct.std::_Vector_base.12" = type { %"struct.std::_Vector_base<nix::PosTable::Origin, std::allocator<nix::PosTable::Origin>>::_Vector_impl" }
%"struct.std::_Vector_base<nix::PosTable::Origin, std::allocator<nix::PosTable::Origin>>::_Vector_impl" = type { %"struct.std::_Vector_base<nix::PosTable::Origin, std::allocator<nix::PosTable::Origin>>::_Vector_impl_data" }
%"struct.std::_Vector_base<nix::PosTable::Origin, std::allocator<nix::PosTable::Origin>>::_Vector_impl_data" = type { ptr, ptr, ptr }
%"class.nix::ChunkedVector.16" = type { i32, %"class.std::vector.17" }
%"class.std::vector.17" = type { %"struct.std::_Vector_base.18" }
%"struct.std::_Vector_base.18" = type { %"struct.std::_Vector_base<std::vector<nix::PosTable::Offset>, std::allocator<std::vector<nix::PosTable::Offset>>>::_Vector_impl" }
%"struct.std::_Vector_base<std::vector<nix::PosTable::Offset>, std::allocator<std::vector<nix::PosTable::Offset>>>::_Vector_impl" = type { %"struct.std::_Vector_base<std::vector<nix::PosTable::Offset>, std::allocator<std::vector<nix::PosTable::Offset>>>::_Vector_impl_data" }
%"struct.std::_Vector_base<std::vector<nix::PosTable::Offset>, std::allocator<std::vector<nix::PosTable::Offset>>>::_Vector_impl_data" = type { ptr, ptr, ptr }
%"class.nix::Symbol" = type { i32 }
%"struct.nix::Expr::AstSymbols" = type { %"class.nix::Symbol", %"class.nix::Symbol", %"class.nix::Symbol", %"class.nix::Symbol", %"class.nix::Symbol", %"class.nix::Symbol", %"class.nix::Symbol", %"class.nix::Symbol" }
%"class.nix::Bindings" = type { %"class.nix::PosIdx", i32, i32, [0 x %"struct.nix::Attr"] }
%"struct.nix::Attr" = type { %"class.nix::Symbol", %"class.nix::PosIdx", ptr }
%"class.nix::ref.22" = type { %"class.std::shared_ptr.23" }
%"class.std::shared_ptr.23" = type { %"class.std::__shared_ptr.24" }
%"class.std::__shared_ptr.24" = type { ptr, %"class.std::__shared_count" }
%"class.nix::ref.26" = type { %"class.std::shared_ptr.27" }
%"class.std::shared_ptr.27" = type { %"class.std::__shared_ptr.28" }
%"class.std::__shared_ptr.28" = type { ptr, %"class.std::__shared_count" }
%"struct.nix::SourcePath" = type { %"class.nix::ref.22", %"class.nix::CanonPath" }
%"class.nix::CanonPath" = type { %"class.std::__cxx11::basic_string" }
%"class.std::shared_ptr.30" = type { %"class.std::__shared_ptr.31" }
%"class.std::__shared_ptr.31" = type { ptr, %"class.std::__shared_count" }
%"class.std::__cxx11::list" = type { %"class.std::__cxx11::_List_base" }
%"class.std::__cxx11::_List_base" = type { %"struct.std::__cxx11::_List_base<nix::DebugTrace, std::allocator<nix::DebugTrace>>::_List_impl" }
%"struct.std::__cxx11::_List_base<nix::DebugTrace, std::allocator<nix::DebugTrace>>::_List_impl" = type { %"struct.std::__detail::_List_node_header" }
%"class.std::map" = type { %"class.std::_Rb_tree" }
%"class.std::_Rb_tree" = type { %"struct.std::_Rb_tree<const nix::Expr *, std::pair<const nix::Expr *const, const std::shared_ptr<const nix::StaticEnv>>, std::_Select1st<std::pair<const nix::Expr *const, const std::shared_ptr<const nix::StaticEnv>>>, std::less<const nix::Expr *>>::_Rb_tree_impl" }
%"struct.std::_Rb_tree<const nix::Expr *, std::pair<const nix::Expr *const, const std::shared_ptr<const nix::StaticEnv>>, std::_Select1st<std::pair<const nix::Expr *const, const std::shared_ptr<const nix::StaticEnv>>>, std::less<const nix::Expr *>>::_Rb_tree_impl" = type { %"struct.std::_Rb_tree_key_compare", %"struct.std::_Rb_tree_header" }
%"struct.std::_Rb_tree_key_compare" = type { %"struct.std::less" }
%"struct.std::less" = type { i8 }
%"class.std::map.40" = type { %"class.std::_Rb_tree.41" }
%"class.std::_Rb_tree.41" = type { %"struct.std::_Rb_tree<nix::SourcePath, std::pair<const nix::SourcePath, nix::StorePath>, std::_Select1st<std::pair<const nix::SourcePath, nix::StorePath>>, std::less<nix::SourcePath>>::_Rb_tree_impl" }
%"struct.std::_Rb_tree<nix::SourcePath, std::pair<const nix::SourcePath, nix::StorePath>, std::_Select1st<std::pair<const nix::SourcePath, nix::StorePath>>, std::less<nix::SourcePath>>::_Rb_tree_impl" = type { %"struct.std::_Rb_tree_key_compare.45", %"struct.std::_Rb_tree_header" }
%"struct.std::_Rb_tree_key_compare.45" = type { %"struct.std::less.46" }
%"struct.std::less.46" = type { i8 }
%"class.std::map.48" = type { %"class.std::_Rb_tree.49" }
%"class.std::_Rb_tree.49" = type { %"struct.std::_Rb_tree<nix::SourcePath, std::pair<const nix::SourcePath, nix::Expr *>, std::_Select1st<std::pair<const nix::SourcePath, nix::Expr *>>, std::less<nix::SourcePath>, traceable_allocator<std::pair<const nix::SourcePath, nix::Expr *>>>::_Rb_tree_impl" }
%"struct.std::_Rb_tree<nix::SourcePath, std::pair<const nix::SourcePath, nix::Expr *>, std::_Select1st<std::pair<const nix::SourcePath, nix::Expr *>>, std::less<nix::SourcePath>, traceable_allocator<std::pair<const nix::SourcePath, nix::Expr *>>>::_Rb_tree_impl" = type { %"struct.std::_Rb_tree_key_compare.45", %"struct.std::_Rb_tree_header" }
%"class.std::map.50" = type { %"class.std::_Rb_tree.51" }
%"class.std::_Rb_tree.51" = type { %"struct.std::_Rb_tree<nix::SourcePath, std::pair<const nix::SourcePath, nix::Value>, std::_Select1st<std::pair<const nix::SourcePath, nix::Value>>, std::less<nix::SourcePath>, traceable_allocator<std::pair<const nix::SourcePath, nix::Value>>>::_Rb_tree_impl" }
%"struct.std::_Rb_tree<nix::SourcePath, std::pair<const nix::SourcePath, nix::Value>, std::_Select1st<std::pair<const nix::SourcePath, nix::Value>>, std::less<nix::SourcePath>, traceable_allocator<std::pair<const nix::SourcePath, nix::Value>>>::_Rb_tree_impl" = type { %"struct.std::_Rb_tree_key_compare.45", %"struct.std::_Rb_tree_header" }
%"struct.nix::SearchPath" = type { %"class.std::__cxx11::list.54" }
%"class.std::__cxx11::list.54" = type { %"class.std::__cxx11::_List_base.55" }
%"class.std::__cxx11::_List_base.55" = type { %"struct.std::__cxx11::_List_base<nix::SearchPath::Elem, std::allocator<nix::SearchPath::Elem>>::_List_impl" }
%"struct.std::__cxx11::_List_base<nix::SearchPath::Elem, std::allocator<nix::SearchPath::Elem>>::_List_impl" = type { %"struct.std::__detail::_List_node_header" }
%"class.std::map.59" = type { %"class.std::_Rb_tree.60" }
%"class.std::_Rb_tree.60" = type { %"struct.std::_Rb_tree<std::__cxx11::basic_string<char>, std::pair<const std::__cxx11::basic_string<char>, std::optional<std::__cxx11::basic_string<char>>>, std::_Select1st<std::pair<const std::__cxx11::basic_string<char>, std::optional<std::__cxx11::basic_string<char>>>>, std::less<std::__cxx11::basic_string<char>>>::_Rb_tree_impl" }
%"struct.std::_Rb_tree<std::__cxx11::basic_string<char>, std::pair<const std::__cxx11::basic_string<char>, std::optional<std::__cxx11::basic_string<char>>>, std::_Select1st<std::pair<const std::__cxx11::basic_string<char>, std::optional<std::__cxx11::basic_string<char>>>>, std::less<std::__cxx11::basic_string<char>>>::_Rb_tree_impl" = type { %"struct.std::_Rb_tree_key_compare.64", %"struct.std::_Rb_tree_header" }
%"class.std::shared_ptr.67" = type { %"class.std::__shared_ptr.68" }
%"class.std::__shared_ptr.68" = type { ptr, %"class.std::__shared_count" }
%"class.std::shared_ptr.70" = type { %"class.std::__shared_ptr.71" }
%"class.std::__shared_ptr.71" = type { ptr, %"class.std::__shared_count" }
%"class.std::shared_ptr.73" = type { %"class.std::__shared_ptr.74" }
%"class.std::__shared_ptr.74" = type { ptr, %"class.std::__shared_count" }
%"class.std::vector.76" = type { %"struct.std::_Vector_base.77" }
%"struct.std::_Vector_base.77" = type { %"struct.std::_Vector_base<std::pair<std::__cxx11::basic_string<char>, nix::Constant>, std::allocator<std::pair<std::__cxx11::basic_string<char>, nix::Constant>>>::_Vector_impl" }
%"struct.std::_Vector_base<std::pair<std::__cxx11::basic_string<char>, nix::Constant>, std::allocator<std::pair<std::__cxx11::basic_string<char>, nix::Constant>>>::_Vector_impl" = type { %"struct.std::_Vector_base<std::pair<std::__cxx11::basic_string<char>, nix::Constant>, std::allocator<std::pair<std::__cxx11::basic_string<char>, nix::Constant>>>::_Vector_impl_data" }
%"struct.std::_Vector_base<std::pair<std::__cxx11::basic_string<char>, nix::Constant>, std::allocator<std::pair<std::__cxx11::basic_string<char>, nix::Constant>>>::_Vector_impl_data" = type { ptr, ptr, ptr }
%"class.std::map.81" = type { %"class.std::_Rb_tree.82" }
%"class.std::_Rb_tree.82" = type { %"struct.std::_Rb_tree<std::__cxx11::basic_string<char>, std::pair<const std::__cxx11::basic_string<char>, unsigned long>, std::_Select1st<std::pair<const std::__cxx11::basic_string<char>, unsigned long>>, std::less<std::__cxx11::basic_string<char>>>::_Rb_tree_impl" }
%"struct.std::_Rb_tree<std::__cxx11::basic_string<char>, std::pair<const std::__cxx11::basic_string<char>, unsigned long>, std::_Select1st<std::pair<const std::__cxx11::basic_string<char>, unsigned long>>, std::less<std::__cxx11::basic_string<char>>>::_Rb_tree_impl" = type { %"struct.std::_Rb_tree_key_compare.64", %"struct.std::_Rb_tree_header" }
%"class.std::map.86" = type { %"class.std::_Rb_tree.87" }
%"class.std::_Rb_tree.87" = type { %"struct.std::_Rb_tree<nix::ExprLambda *, std::pair<nix::ExprLambda *const, unsigned long>, std::_Select1st<std::pair<nix::ExprLambda *const, unsigned long>>, std::less<nix::ExprLambda *>>::_Rb_tree_impl" }
%"struct.std::_Rb_tree<nix::ExprLambda *, std::pair<nix::ExprLambda *const, unsigned long>, std::_Select1st<std::pair<nix::ExprLambda *const, unsigned long>>, std::less<nix::ExprLambda *>>::_Rb_tree_impl" = type { %"struct.std::_Rb_tree_key_compare.91", %"struct.std::_Rb_tree_header" }
%"struct.std::_Rb_tree_key_compare.91" = type { %"struct.std::less.92" }
%"struct.std::less.92" = type { i8 }
%"class.std::map.94" = type { %"class.std::_Rb_tree.95" }
%"class.std::_Rb_tree.95" = type { %"struct.std::_Rb_tree<nix::PosIdx, std::pair<const nix::PosIdx, unsigned long>, std::_Select1st<std::pair<const nix::PosIdx, unsigned long>>, std::less<nix::PosIdx>>::_Rb_tree_impl" }
%"struct.std::_Rb_tree<nix::PosIdx, std::pair<const nix::PosIdx, unsigned long>, std::_Select1st<std::pair<const nix::PosIdx, unsigned long>>, std::less<nix::PosIdx>>::_Rb_tree_impl" = type { %"struct.std::_Rb_tree_key_compare.99", %"struct.std::_Rb_tree_header" }
%"struct.std::_Rb_tree_key_compare.99" = type { %"struct.std::less.100" }
%"struct.std::less.100" = type { i8 }
%"class.testing::Test" = type { ptr, %"class.std::unique_ptr" }
%"class.std::unique_ptr" = type { %"struct.std::__uniq_ptr_data" }
%"struct.std::__uniq_ptr_data" = type { %"class.std::__uniq_ptr_impl" }
%"class.std::__uniq_ptr_impl" = type { %"class.std::tuple" }
%"class.std::tuple" = type { %"struct.std::_Tuple_impl" }
%"struct.std::_Tuple_impl" = type { %"struct.std::_Head_base.2" }
%"struct.std::_Head_base.2" = type { ptr }
%"class.nix::BindingsBuilder" = type { ptr, ptr }
%struct.anon = type { i64, ptr }
%"struct.nix::Value::FunctionApplicationThunk" = type { ptr, ptr }

@.str.153 = private unnamed_addr constant [32 x i8] c"[ { } \1B[35;1m\C2\ABrepeated\C2\BB\1B[0m ]\00", align 1

; Function Attrs: mustprogress nounwind uwtable
define linkonce_odr noundef i64 @_ZNSt11char_traitsIcE6lengthEPKc(ptr noundef %0) #4 comdat align 2 {
  %2 = alloca ptr, align 8
  store ptr %0, ptr %2, align 8
  %3 = load ptr, ptr %2, align 8
  %4 = call i64 @strlen(ptr noundef %3) #3
  ret i64 %4
}

; Function Attrs: mustprogress nounwind uwtable
define linkonce_odr void @_ZN3nix5Value10clearValueEv(ptr noundef nonnull align 8 dereferenceable(24) %0) #4 comdat align 2 {
  %2 = alloca ptr, align 8
  store ptr %0, ptr %2, align 8
  %3 = load ptr, ptr %2, align 8
  %4 = getelementptr inbounds %"struct.nix::Value", ptr %3, i32 0, i32 1
  %5 = getelementptr inbounds %"struct.nix::Value::FunctionApplicationThunk", ptr %4, i32 0, i32 1
  store ptr null, ptr %5, align 8
  %6 = getelementptr inbounds %"struct.nix::Value", ptr %3, i32 0, i32 1
  %7 = getelementptr inbounds %"struct.nix::Value::FunctionApplicationThunk", ptr %6, i32 0, i32 0
  store ptr null, ptr %7, align 8
  ret void
}

; Function Attrs: mustprogress nounwind uwtable
define linkonce_odr noundef i64 @_ZNSt14numeric_limitsImE3maxEv() #4 comdat align 2 {
  ret i64 -1
}

; Function Attrs: mustprogress nounwind uwtable
define linkonce_odr void @_ZNSt17basic_string_viewIcSt11char_traitsIcEEC2EPKc(ptr noundef nonnull align 8 dereferenceable(16) %0, ptr noundef nonnull %1) unnamed_addr #4 comdat align 2 {
  %3 = alloca ptr, align 8
  %4 = alloca ptr, align 8
  store ptr %0, ptr %3, align 8
  store ptr %1, ptr %4, align 8
  %5 = load ptr, ptr %3, align 8
  %6 = getelementptr inbounds %"class.std::basic_string_view", ptr %5, i32 0, i32 0
  %7 = load ptr, ptr %4, align 8
  %8 = call noundef i64 @_ZNSt11char_traitsIcE6lengthEPKc(ptr noundef %7)
  store i64 %8, ptr %6, align 8
  %9 = getelementptr inbounds %"class.std::basic_string_view", ptr %5, i32 0, i32 1
  %10 = load ptr, ptr %4, align 8
  store ptr %10, ptr %9, align 8
  ret void
}

; Function Attrs: mustprogress nounwind uwtable
define linkonce_odr void @_ZN3nix5Value7mkAttrsEPNS_8BindingsE(ptr noundef nonnull align 8 dereferenceable(24) %0, ptr noundef %1) #4 comdat align 2 {
  %3 = alloca ptr, align 8
  %4 = alloca ptr, align 8
  store ptr %0, ptr %3, align 8
  store ptr %1, ptr %4, align 8
  %5 = load ptr, ptr %3, align 8
  call void @_ZN3nix5Value10clearValueEv(ptr noundef nonnull align 8 dereferenceable(24) %5)
  %6 = getelementptr inbounds %"struct.nix::Value", ptr %5, i32 0, i32 0
  store i32 6, ptr %6, align 8
  %7 = load ptr, ptr %4, align 8
  %8 = getelementptr inbounds %"struct.nix::Value", ptr %5, i32 0, i32 1
  store ptr %7, ptr %8, align 8
  ret void
}

; Function Attrs: mustprogress uwtable
define linkonce_odr noundef ptr @_ZN3nix15BindingsBuilder6finishEv(ptr noundef nonnull align 8 dereferenceable(16) %0) #5 comdat align 2 {
  %2 = alloca ptr, align 8
  store ptr %0, ptr %2, align 8
  %3 = load ptr, ptr %2, align 8
  %4 = getelementptr inbounds %"class.nix::BindingsBuilder", ptr %3, i32 0, i32 0
  %5 = load ptr, ptr %4, align 8
  call void @_ZN3nix8Bindings4sortEv(ptr noundef nonnull align 8 dereferenceable(16) %5)
  %6 = getelementptr inbounds %"class.nix::BindingsBuilder", ptr %3, i32 0, i32 0
  %7 = load ptr, ptr %6, align 8
  ret ptr %7
}

; Function Attrs: mustprogress nounwind uwtable
define linkonce_odr void @_ZN3nix15BindingsBuilderC2ERNS_9EvalStateEPNS_8BindingsE(ptr noundef nonnull align 8 dereferenceable(16) %0, ptr noundef nonnull align 8 dereferenceable(1248) %1, ptr noundef %2) unnamed_addr #4 comdat align 2 {
  %4 = alloca ptr, align 8
  %5 = alloca ptr, align 8
  %6 = alloca ptr, align 8
  store ptr %0, ptr %4, align 8
  store ptr %1, ptr %5, align 8
  store ptr %2, ptr %6, align 8
  %7 = load ptr, ptr %4, align 8
  %8 = getelementptr inbounds %"class.nix::BindingsBuilder", ptr %7, i32 0, i32 0
  %9 = load ptr, ptr %6, align 8
  store ptr %9, ptr %8, align 8
  %10 = getelementptr inbounds %"class.nix::BindingsBuilder", ptr %7, i32 0, i32 1
  %11 = load ptr, ptr %5, align 8
  store ptr %11, ptr %10, align 8
  ret void
}

; Function Attrs: mustprogress uwtable
define void @_ZN3nix46ValuePrintingTests_ansiColorsListRepeated_Test8TestBodyEv(ptr noundef nonnull align 8 dereferenceable(1272) %0) unnamed_addr #5 align 2 {
  %2 = alloca ptr, align 8
  %3 = alloca %"class.nix::BindingsBuilder", align 8
  %4 = alloca %"struct.nix::Value", align 8
  %5 = alloca %"struct.nix::Value", align 8
  %6 = alloca %"struct.nix::Value", align 8
  %7 = alloca %"class.std::basic_string_view", align 8
  %8 = alloca %"struct.nix::PrintOptions", align 8
  store ptr %0, ptr %2, align 8
  %9 = load ptr, ptr %2, align 8
  %10 = getelementptr inbounds %"class.nix::LibExprTest", ptr %9, i32 0, i32 1
  %11 = getelementptr inbounds %"class.nix::LibExprTest", ptr %9, i32 0, i32 1
  %12 = call noundef ptr @_ZN3nix9EvalState13allocBindingsEm(ptr noundef nonnull align 8 dereferenceable(1248) %11, i64 noundef 1)
  call void @_ZN3nix15BindingsBuilderC2ERNS_9EvalStateEPNS_8BindingsE(ptr noundef nonnull align 8 dereferenceable(16) %3, ptr noundef nonnull align 8 dereferenceable(1248) %10, ptr noundef %12)
  %13 = call noundef ptr @_ZN3nix15BindingsBuilder6finishEv(ptr noundef nonnull align 8 dereferenceable(16) %3)
  call void @_ZN3nix5Value7mkAttrsEPNS_8BindingsE(ptr noundef nonnull align 8 dereferenceable(24) %4, ptr noundef %13)
  %14 = getelementptr inbounds %"class.nix::LibExprTest", ptr %9, i32 0, i32 1
  call void @_ZN3nix9EvalState6mkListERNS_5ValueEm(ptr noundef nonnull align 8 dereferenceable(1248) %14, ptr noundef nonnull align 8 dereferenceable(24) %5, i64 noundef 3)
  %15 = getelementptr inbounds %"struct.nix::Value", ptr %5, i32 0, i32 1
  %16 = getelementptr inbounds %struct.anon, ptr %15, i32 0, i32 1
  %17 = load ptr, ptr %16, align 8
  %18 = getelementptr inbounds ptr, ptr %17, i64 0
  store ptr %4, ptr %18, align 8
  %19 = getelementptr inbounds %"struct.nix::Value", ptr %5, i32 0, i32 1
  %20 = getelementptr inbounds %struct.anon, ptr %19, i32 0, i32 1
  %21 = load ptr, ptr %20, align 8
  %22 = getelementptr inbounds ptr, ptr %21, i64 1
  store ptr %4, ptr %22, align 8
  %23 = getelementptr inbounds %"struct.nix::Value", ptr %5, i32 0, i32 1
  %24 = getelementptr inbounds %struct.anon, ptr %23, i32 0, i32 0
  store i64 2, ptr %24, align 8
  call void @llvm.memcpy.p0.p0.i64(ptr align 8 %6, ptr align 8 %5, i64 24, i1 false)
  call void @_ZNSt17basic_string_viewIcSt11char_traitsIcEEC2EPKc(ptr noundef nonnull align 8 dereferenceable(16) %7, ptr noundef @.str.153) #3
  %25 = getelementptr inbounds %"struct.nix::PrintOptions", ptr %8, i32 0, i32 0
  store i8 1, ptr %25, align 8
  %26 = getelementptr inbounds %"struct.nix::PrintOptions", ptr %8, i32 0, i32 1
  store i8 0, ptr %26, align 1
  %27 = getelementptr inbounds %"struct.nix::PrintOptions", ptr %8, i32 0, i32 2
  store i8 0, ptr %27, align 2
  %28 = getelementptr inbounds %"struct.nix::PrintOptions", ptr %8, i32 0, i32 3
  store i8 1, ptr %28, align 1
  %29 = getelementptr inbounds %"struct.nix::PrintOptions", ptr %8, i32 0, i32 4
  %30 = call noundef i64 @_ZNSt14numeric_limitsImE3maxEv() #3
  store i64 %30, ptr %29, align 8
  %31 = getelementptr inbounds %"struct.nix::PrintOptions", ptr %8, i32 0, i32 5
  %32 = call noundef i64 @_ZNSt14numeric_limitsImE3maxEv() #3
  store i64 %32, ptr %31, align 8
  %33 = getelementptr inbounds %"struct.nix::PrintOptions", ptr %8, i32 0, i32 6
  %34 = call noundef i64 @_ZNSt14numeric_limitsImE3maxEv() #3
  store i64 %34, ptr %33, align 8
  %35 = getelementptr inbounds %"struct.nix::PrintOptions", ptr %8, i32 0, i32 7
  %36 = call noundef i64 @_ZNSt14numeric_limitsImE3maxEv() #3
  store i64 %36, ptr %35, align 8
  %37 = getelementptr inbounds %"struct.nix::PrintOptions", ptr %8, i32 0, i32 8
  store i64 0, ptr %37, align 8
  %38 = getelementptr inbounds { i64, ptr }, ptr %7, i32 0, i32 0
  %39 = load i64, ptr %38, align 8
  %40 = getelementptr inbounds { i64, ptr }, ptr %7, i32 0, i32 1
  %41 = load ptr, ptr %40, align 8
  call void @_ZN3nix18ValuePrintingTests4testIJNS_12PrintOptionsEEEEvNS_5ValueESt17basic_string_viewIcSt11char_traitsIcEEDpT_(ptr noundef nonnull align 8 dereferenceable(1272) %9, ptr noundef byval(%"struct.nix::Value") align 8 %6, i64 %39, ptr %41, ptr noundef byval(%"struct.nix::PrintOptions") align 8 %8)
  ret void
}