; Function Attrs: mustprogress uwtable
define void @_ZN3nix46ValuePrintingTests_ansiColorsListRepeated_Test8TestBodyEv(ptr noundef nonnull align 8 dereferenceable(1272) %0) unnamed_addr #4 align 2 {
  %2 = alloca %"struct.nix::Value", align 8
  %3 = alloca %"struct.nix::Value", align 8
  %4 = alloca %"struct.nix::PrintOptions", align 8
  %5 = getelementptr inbounds i8, ptr %0, i64 24
  %6 = tail call noundef ptr @_ZN3nix9EvalState13allocBindingsEm(ptr noundef nonnull align 8 dereferenceable(1248) %5, i64 noundef 1)
  tail call void @_ZN3nix8Bindings4sortEv(ptr noundef nonnull align 8 dereferenceable(16) %6)
  %7 = getelementptr inbounds i8, ptr %2, i64 8
  %8 = getelementptr inbounds i8, ptr %2, i64 16
  store i64 0, ptr %8, align 8
  store i32 6, ptr %2, align 8
  store ptr %6, ptr %7, align 8
  call void @_ZN3nix9EvalState6mkListERNS_5ValueEm(ptr noundef nonnull align 8 dereferenceable(1248) %5, ptr noundef nonnull align 8 dereferenceable(24) %3, i64 noundef 3)
  %9 = getelementptr inbounds i8, ptr %3, i64 8
  %10 = getelementptr inbounds i8, ptr %3, i64 16
  %11 = load ptr, ptr %10, align 8
  store ptr %2, ptr %11, align 8
  %12 = load ptr, ptr %10, align 8
  %13 = getelementptr inbounds i8, ptr %12, i64 8
  store ptr %2, ptr %13, align 8
  store i64 2, ptr %9, align 8
  store <4 x i8> <i8 1, i8 0, i8 0, i8 1>, ptr %4, align 8
  %14 = getelementptr inbounds i8, ptr %4, i64 8
  %15 = getelementptr inbounds i8, ptr %4, i64 40
  call void @llvm.memset.p0.i64(ptr noundef nonnull align 8 dereferenceable(32) %14, i8 -1, i64 32, i1 false)
  store i64 0, ptr %15, align 8
  call void @_ZN3nix18ValuePrintingTests4testIJNS_12PrintOptionsEEEEvNS_5ValueESt17basic_string_viewIcSt11char_traitsIcEEDpT_(ptr noundef nonnull align 8 dereferenceable(1272) %0, ptr noundef nonnull byval(%"struct.nix::Value") align 8 %3, i64 31, ptr nonnull @.str.153, ptr noundef nonnull byval(%"struct.nix::PrintOptions") align 8 %4)
  ret void
}